target datalayout = "e-m:e-p270:32:32-p271:32:32-p272:64:64-i64:64-i128:128-f80:128-n8:16:32:64-S128"
target triple = "x86_64-pc-linux-gnu"

%struct.EncoderSession = type { i32, i32, i32, i32, ptr, ptr, ptr, i32, i32, i32, i64, i64, i64, i64, i32, i64, [16 x i8], %struct.SampleInfo, i32, %union.anon.4, ptr, ptr, ptr, double, double }
%struct.SampleInfo = type { i32, i32, i32, i32, i32, i32, i32, i32 }
%union.anon.4 = type { %struct.anon.6 }
%struct.anon.6 = type { ptr, %struct.FLACDecoderData }
%struct.FLACDecoderData = type { i64, ptr, i32, i64, [1024 x ptr], i64, i32 }

@stderr = external global ptr, align 8
@.str.158 = private unnamed_addr constant [49 x i8] c"%s: WARNING, error while calculating ReplayGain\0A\00", align 1

; Function Attrs: nounwind sspstrong uwtable
define internal i32 @EncoderSession_process(ptr noundef %0, ptr noundef %1, i32 noundef %2) #0 {
  %4 = alloca i32, align 4
  %5 = alloca ptr, align 8
  %6 = alloca ptr, align 8
  %7 = alloca i32, align 4
  store ptr %0, ptr %5, align 8, !tbaa !48
  store ptr %1, ptr %6, align 8, !tbaa !135
  store i32 %2, ptr %7, align 4, !tbaa !13
  %8 = load ptr, ptr %5, align 8, !tbaa !48
  %9 = getelementptr inbounds nuw %struct.EncoderSession, ptr %8, i32 0, i32 9
  %10 = load i32, ptr %9, align 8, !tbaa !80
  %11 = icmp ne i32 %10, 0
  br i1 %11, label %12, label %39

12:                                               ; preds = %3
  %13 = load ptr, ptr %6, align 8, !tbaa !135
  %14 = load ptr, ptr %5, align 8, !tbaa !48
  %15 = getelementptr inbounds nuw %struct.EncoderSession, ptr %14, i32 0, i32 17
  %16 = getelementptr inbounds nuw %struct.SampleInfo, ptr %15, i32 0, i32 1
  %17 = load i32, ptr %16, align 4, !tbaa !30
  %18 = icmp eq i32 %17, 2
  %19 = zext i1 %18 to i32
  %20 = load ptr, ptr %5, align 8, !tbaa !48
  %21 = getelementptr inbounds nuw %struct.EncoderSession, ptr %20, i32 0, i32 17
  %22 = getelementptr inbounds nuw %struct.SampleInfo, ptr %21, i32 0, i32 2
  %23 = load i32, ptr %22, align 8, !tbaa !32
  %24 = load i32, ptr %7, align 4, !tbaa !13
  %25 = call i32 @grabbag__replaygain_analyze(ptr noundef %13, i32 noundef %19, i32 noundef %23, i32 noundef %24)
  %26 = icmp ne i32 %25, 0
  br i1 %26, label %38, label %27

27:                                               ; preds = %12
  %28 = load ptr, ptr @stderr, align 8, !tbaa !4
  %29 = load ptr, ptr %5, align 8, !tbaa !48
  %30 = getelementptr inbounds nuw %struct.EncoderSession, ptr %29, i32 0, i32 4
  %31 = load ptr, ptr %30, align 8, !tbaa !24
  call void (ptr, i32, ptr, ...) @flac__utils_printf(ptr noundef %28, i32 noundef 1, ptr noundef @.str.158, ptr noundef %31)
  %32 = load ptr, ptr %5, align 8, !tbaa !48
  %33 = getelementptr inbounds nuw %struct.EncoderSession, ptr %32, i32 0, i32 7
  %34 = load i32, ptr %33, align 8, !tbaa !28
  %35 = icmp ne i32 %34, 0
  br i1 %35, label %36, label %37

36:                                               ; preds = %27
  store i32 0, ptr %4, align 4
  br label %46

37:                                               ; preds = %27
  br label %38

38:                                               ; preds = %37, %12
  br label %39

39:                                               ; preds = %38, %3
  %40 = load ptr, ptr %5, align 8, !tbaa !48
  %41 = getelementptr inbounds nuw %struct.EncoderSession, ptr %40, i32 0, i32 20
  %42 = load ptr, ptr %41, align 8, !tbaa !66
  %43 = load ptr, ptr %6, align 8, !tbaa !135
  %44 = load i32, ptr %7, align 4, !tbaa !13
  %45 = call i32 @FLAC__stream_encoder_process(ptr noundef %42, ptr noundef %43, i32 noundef %44)
  store i32 %45, ptr %4, align 4
  br label %46

46:                                               ; preds = %39, %36
  %47 = load i32, ptr %4, align 4
  ret i32 %47
}