; Function Attrs: nounwind sspstrong uwtable
define internal fastcc i32 @EncoderSession_process(ptr noundef readonly captures(none) %0, ptr noundef %1, i32 noundef %2) unnamed_addr #0 {
  %4 = getelementptr inbounds nuw i8, ptr %0, i64 48
  %5 = load i32, ptr %4, align 8, !tbaa !88
  %.not = icmp eq i32 %5, 0
  br i1 %.not, label %20, label %6

6:                                                ; preds = %3
  %7 = getelementptr inbounds nuw i8, ptr %0, i64 124
  %8 = load i32, ptr %7, align 4, !tbaa !45
  %9 = icmp eq i32 %8, 2
  %10 = zext i1 %9 to i32
  %11 = getelementptr inbounds nuw i8, ptr %0, i64 128
  %12 = load i32, ptr %11, align 8, !tbaa !46
  %13 = tail call i32 @grabbag__replaygain_analyze(ptr noundef %1, i32 noundef %10, i32 noundef %12, i32 noundef %2) #20
  %.not10 = icmp eq i32 %13, 0
  br i1 %.not10, label %14, label %20

14:                                               ; preds = %6
  %15 = load ptr, ptr @stderr, align 8, !tbaa !33
  %16 = getelementptr inbounds nuw i8, ptr %0, i64 16
  %17 = load ptr, ptr %16, align 8, !tbaa !25
  tail call void (ptr, i32, ptr, ...) @flac__utils_printf(ptr noundef %15, i32 noundef 1, ptr noundef nonnull @.str.158, ptr noundef %17) #20
  %18 = getelementptr inbounds nuw i8, ptr %0, i64 40
  %19 = load i32, ptr %18, align 8, !tbaa !21
  %.not11 = icmp eq i32 %19, 0
  br i1 %.not11, label %20, label %24

20:                                               ; preds = %6, %14, %3
  %21 = getelementptr inbounds nuw i8, ptr %0, i64 8408
  %22 = load ptr, ptr %21, align 8, !tbaa !34
  %23 = tail call i32 @FLAC__stream_encoder_process(ptr noundef %22, ptr noundef %1, i32 noundef %2) #20
  br label %24

24:                                               ; preds = %14, %20
  %.0 = phi i32 [ %23, %20 ], [ 0, %14 ]
  ret i32 %.0
}